; Function Attrs: mustprogress nofree norecurse nosync nounwind memory(argmem: readwrite) uwtable
define internal void @_ZN2cv4gapi12_GLOBAL__N_118fillConstBorderRowIhEEvPhiiiNS_7Scalar_IdEE(ptr noundef writeonly captures(none) %0, i32 noundef %1, i32 noundef %2, i32 noundef %3, ptr noundef readonly captures(none) %4) unnamed_addr #19 {
  %6 = sub nsw i32 %1, %3
  %7 = mul nsw i32 %6, %2
  %8 = sext i32 %7 to i64
  %9 = getelementptr inbounds i8, ptr %0, i64 %8
  %10 = icmp sgt i32 %3, 0
  %11 = icmp sgt i32 %2, 0
  %or.cond = and i1 %10, %11
  br i1 %or.cond, label %.preheader.us.preheader, label %._crit_edge28

.preheader.us.preheader:                          ; preds = %5
  %12 = zext nneg i32 %2 to i64
  %wide.trip.count34 = zext nneg i32 %3 to i64
  br label %.preheader.us

.preheader.us:                                    ; preds = %.preheader.us.preheader, %._crit_edge.us
  %indvars.iv31 = phi i64 [ 0, %.preheader.us.preheader ], [ %indvars.iv.next32, %._crit_edge.us ]
  %13 = mul nuw nsw i64 %indvars.iv31, %12
  br label %_ZN2cv4gapi3ownL8saturateIhivEET_T0_.exit22.us

_ZN2cv4gapi3ownL8saturateIhivEET_T0_.exit22.us:   ; preds = %.preheader.us, %_ZN2cv4gapi3ownL8saturateIhivEET_T0_.exit22.us
  %indvars.iv = phi i64 [ 0, %.preheader.us ], [ %indvars.iv.next, %_ZN2cv4gapi3ownL8saturateIhivEET_T0_.exit22.us ]
  %14 = getelementptr inbounds nuw [4 x double], ptr %4, i64 0, i64 %indvars.iv
  %15 = load double, ptr %14, align 8, !tbaa !11
  %16 = tail call noundef double @llvm.round.f64(double %15)
  %17 = fptosi double %16 to i32
  %18 = icmp slt i32 %17, 0
  %spec.select24.us = tail call i32 @llvm.umin.i32(i32 %17, i32 255)
  %spec.select.us = trunc nuw i32 %spec.select24.us to i8
  %19 = select i1 %18, i8 0, i8 %spec.select.us
  %20 = add nuw nsw i64 %indvars.iv, %13
  %21 = getelementptr inbounds nuw i8, ptr %0, i64 %20
  store i8 %19, ptr %21, align 1, !tbaa !69
  %22 = load double, ptr %14, align 8, !tbaa !11
  %23 = tail call noundef double @llvm.round.f64(double %22)
  %24 = fptosi double %23 to i32
  %25 = icmp slt i32 %24, 0
  %spec.select2325.us = tail call i32 @llvm.umin.i32(i32 %24, i32 255)
  %spec.select23.us = trunc nuw i32 %spec.select2325.us to i8
  %26 = select i1 %25, i8 0, i8 %spec.select23.us
  %27 = getelementptr inbounds nuw i8, ptr %9, i64 %20
  store i8 %26, ptr %27, align 1, !tbaa !69
  %indvars.iv.next = add nuw nsw i64 %indvars.iv, 1
  %exitcond.not = icmp eq i64 %indvars.iv.next, %12
  br i1 %exitcond.not, label %._crit_edge.us, label %_ZN2cv4gapi3ownL8saturateIhivEET_T0_.exit22.us, !llvm.loop !205

._crit_edge.us:                                   ; preds = %_ZN2cv4gapi3ownL8saturateIhivEET_T0_.exit22.us
  %indvars.iv.next32 = add nuw nsw i64 %indvars.iv31, 1
  %exitcond35.not = icmp eq i64 %indvars.iv.next32, %wide.trip.count34
  br i1 %exitcond35.not, label %._crit_edge28, label %.preheader.us, !llvm.loop !206

._crit_edge28:                                    ; preds = %._crit_edge.us, %5
  ret void
}